target datalayout = "e-m:e-p270:32:32-p271:32:32-p272:64:64-i64:64-i128:128-f80:128-n8:16:32:64-S128"
target triple = "x86_64-pc-linux-gnu"

@t38_tcp_pdu_handle = internal global ptr null, align 8
@t38_tpkt_reassembly = internal global i8 1, align 1
@t38_tpkt_usage = internal global i32 2, align 4
@primary_part = internal global i8 1, align 1

; Function Attrs: null_pointer_is_valid sspstrong uwtable
define internal i32 @dissect_t38_tcp(ptr noundef %0, ptr noundef %1, ptr noundef %2, ptr noundef %3) #0 {
  %5 = alloca ptr, align 8
  %6 = alloca ptr, align 8
  %7 = alloca ptr, align 8
  %8 = alloca ptr, align 8
  store ptr %0, ptr %5, align 8
  store ptr %1, ptr %6, align 8
  store ptr %2, ptr %7, align 8
  store ptr %3, ptr %8, align 8
  store i8 1, ptr @primary_part, align 1
  %9 = load i32, ptr @t38_tpkt_usage, align 4
  %10 = icmp eq i32 %9, 1
  br i1 %10, label %11, label %18

11:                                               ; preds = %4
  %12 = load ptr, ptr %5, align 8
  %13 = load ptr, ptr %6, align 8
  %14 = load ptr, ptr %7, align 8
  %15 = load i8, ptr @t38_tpkt_reassembly, align 1, !range !6, !noundef !7
  %16 = trunc i8 %15 to i1
  %17 = load ptr, ptr @t38_tcp_pdu_handle, align 8
  call void @dissect_tpkt_encap(ptr noundef %12, ptr noundef %13, ptr noundef %14, i1 noundef zeroext %16, ptr noundef %17)
  br label %39

18:                                               ; preds = %4
  %19 = load i32, ptr @t38_tpkt_usage, align 4
  %20 = icmp eq i32 %19, 0
  br i1 %20, label %25, label %21

21:                                               ; preds = %18
  %22 = load ptr, ptr %5, align 8
  %23 = call i32 @is_tpkt(ptr noundef %22, i32 noundef 1)
  %24 = icmp eq i32 %23, -1
  br i1 %24, label %25, label %31

25:                                               ; preds = %21, %18
  %26 = load ptr, ptr %5, align 8
  %27 = load ptr, ptr %6, align 8
  %28 = load ptr, ptr %7, align 8
  %29 = load ptr, ptr %8, align 8
  %30 = call i32 @dissect_t38_tcp_pdu(ptr noundef %26, ptr noundef %27, ptr noundef %28, ptr noundef %29)
  br label %38

31:                                               ; preds = %21
  %32 = load ptr, ptr %5, align 8
  %33 = load ptr, ptr %6, align 8
  %34 = load ptr, ptr %7, align 8
  %35 = load i8, ptr @t38_tpkt_reassembly, align 1, !range !6, !noundef !7
  %36 = trunc i8 %35 to i1
  %37 = load ptr, ptr @t38_tcp_pdu_handle, align 8
  call void @dissect_tpkt_encap(ptr noundef %32, ptr noundef %33, ptr noundef %34, i1 noundef zeroext %36, ptr noundef %37)
  br label %38

38:                                               ; preds = %31, %25
  br label %39

39:                                               ; preds = %38, %11
  %40 = load ptr, ptr %5, align 8
  %41 = call i32 @tvb_captured_length(ptr noundef %40)
  ret i32 %41
}