; Function Attrs: null_pointer_is_valid sspstrong uwtable
define internal i32 @dissect_t38_tcp(ptr noundef %0, ptr noundef %1, ptr noundef %2, ptr noundef readnone captures(none) %3) #0 {
  store i1 false, ptr @primary_part, align 1
  %5 = load i32, ptr @t38_tpkt_usage, align 4
  switch i32 %5, label %10 [
    i32 1, label %6
    i32 0, label %13
  ]

6:                                                ; preds = %4
  %7 = load i8, ptr @t38_tpkt_reassembly, align 1, !range !6, !noundef !7
  %8 = trunc nuw i8 %7 to i1
  %9 = load ptr, ptr @t38_tcp_pdu_handle, align 8
  tail call void @dissect_tpkt_encap(ptr noundef %0, ptr noundef %1, ptr noundef %2, i1 noundef zeroext %8, ptr noundef %9)
  br label %19

10:                                               ; preds = %4
  %11 = tail call i32 @is_tpkt(ptr noundef %0, i32 noundef 1)
  %12 = icmp eq i32 %11, -1
  br i1 %12, label %13, label %15

13:                                               ; preds = %4, %10
  %14 = tail call i32 @dissect_t38_tcp_pdu(ptr noundef %0, ptr noundef %1, ptr noundef %2, ptr poison)
  br label %19

15:                                               ; preds = %10
  %16 = load i8, ptr @t38_tpkt_reassembly, align 1, !range !6, !noundef !7
  %17 = trunc nuw i8 %16 to i1
  %18 = load ptr, ptr @t38_tcp_pdu_handle, align 8
  tail call void @dissect_tpkt_encap(ptr noundef %0, ptr noundef %1, ptr noundef %2, i1 noundef zeroext %17, ptr noundef %18)
  br label %19

19:                                               ; preds = %13, %15, %6
  %20 = tail call i32 @tvb_captured_length(ptr noundef %0)
  ret i32 %20
}